target datalayout = "e-m:e-p270:32:32-p271:32:32-p272:64:64-i64:64-i128:128-f80:128-n8:16:32:64-S128"
target triple = "x86_64-pc-linux-gnu"

%struct.nstime_t = type { i64 }
%struct.decay_s = type { %struct.malloc_mutex_s, i8, %struct.atomic_zd_t, %struct.nstime_t, %struct.nstime_t, i64, %struct.nstime_t, i64, i64, [200 x i64], i64 }
%struct.malloc_mutex_s = type { %union.anon }
%union.anon = type { %struct.anon }
%struct.anon = type { %struct.mutex_prof_data_t, %union.pthread_mutex_t, %struct.atomic_b_t }
%struct.mutex_prof_data_t = type { %struct.nstime_t, %struct.nstime_t, i64, i64, i32, %struct.atomic_u32_t, i64, ptr, i64 }
%struct.atomic_u32_t = type { i32 }
%union.pthread_mutex_t = type { %struct.__pthread_mutex_s }
%struct.__pthread_mutex_s = type { i32, i32, i32, i32, i32, i16, i16, %struct.__pthread_internal_list }
%struct.__pthread_internal_list = type { ptr, ptr }
%struct.atomic_b_t = type { i8 }
%struct.atomic_zd_t = type { i64 }

; Function Attrs: inlinehint nounwind uwtable
define internal i64 @decay_epoch_duration_ns(ptr noundef %0) #2 {
  %2 = alloca ptr, align 8
  store ptr %0, ptr %2, align 8, !tbaa !4
  %3 = load ptr, ptr %2, align 8, !tbaa !4
  %4 = getelementptr inbounds nuw %struct.decay_s, ptr %3, i32 0, i32 3
  %5 = call i64 @je_nstime_ns(ptr noundef %4)
  ret i64 %5
}

; Function Attrs: nounwind uwtable
define hidden i64 @je_decay_npages_purge_in(ptr noundef %0, ptr noundef %1, i64 noundef %2) #0 {
  %4 = alloca ptr, align 8
  %5 = alloca ptr, align 8
  %6 = alloca i64, align 8
  %7 = alloca i64, align 8
  %8 = alloca i64, align 8
  %9 = alloca i64, align 8
  %10 = alloca i64, align 8
  store ptr %0, ptr %4, align 8, !tbaa !4
  store ptr %1, ptr %5, align 8, !tbaa !17
  store i64 %2, ptr %6, align 8, !tbaa !11
  call void @llvm.lifetime.start.p0(i64 8, ptr %7) #9
  %11 = load ptr, ptr %4, align 8, !tbaa !4
  %12 = call i64 @decay_epoch_duration_ns(ptr noundef %11)
  store i64 %12, ptr %7, align 8, !tbaa !11
  call void @llvm.lifetime.start.p0(i64 8, ptr %8) #9
  %13 = load ptr, ptr %5, align 8, !tbaa !17
  %14 = call i64 @je_nstime_ns(ptr noundef %13)
  %15 = load i64, ptr %7, align 8, !tbaa !11
  %16 = udiv i64 %14, %15
  store i64 %16, ptr %8, align 8, !tbaa !11
  call void @llvm.lifetime.start.p0(i64 8, ptr %9) #9
  %17 = load i64, ptr %8, align 8, !tbaa !11
  %18 = icmp uge i64 %17, 200
  br i1 %18, label %19, label %21

19:                                               ; preds = %3
  %20 = load i64, ptr %6, align 8, !tbaa !11
  store i64 %20, ptr %9, align 8, !tbaa !11
  br label %36

21:                                               ; preds = %3
  call void @llvm.lifetime.start.p0(i64 8, ptr %10) #9
  %22 = load i64, ptr getelementptr inbounds ([200 x i64], ptr @h_steps, i64 0, i64 199), align 8, !tbaa !11
  store i64 %22, ptr %10, align 8, !tbaa !11
  br label %23

23:                                               ; preds = %21
  br label %24

24:                                               ; preds = %23
  br label %25

25:                                               ; preds = %24
  %26 = load i64, ptr %6, align 8, !tbaa !11
  %27 = load i64, ptr %10, align 8, !tbaa !11
  %28 = load i64, ptr %8, align 8, !tbaa !11
  %29 = sub i64 199, %28
  %30 = getelementptr inbounds nuw [200 x i64], ptr @h_steps, i64 0, i64 %29
  %31 = load i64, ptr %30, align 8, !tbaa !11
  %32 = sub i64 %27, %31
  %33 = mul i64 %26, %32
  store i64 %33, ptr %9, align 8, !tbaa !11
  %34 = load i64, ptr %9, align 8, !tbaa !11
  %35 = lshr i64 %34, 24
  store i64 %35, ptr %9, align 8, !tbaa !11
  call void @llvm.lifetime.end.p0(i64 8, ptr %10) #9
  br label %36

36:                                               ; preds = %25, %19
  %37 = load i64, ptr %9, align 8, !tbaa !11
  call void @llvm.lifetime.end.p0(i64 8, ptr %9) #9
  call void @llvm.lifetime.end.p0(i64 8, ptr %8) #9
  call void @llvm.lifetime.end.p0(i64 8, ptr %7) #9
  ret i64 %37
}