; Function Attrs: nounwind uwtable
define hidden i64 @je_decay_npages_purge_in(ptr noundef %0, ptr noundef %1, i64 noundef %2) local_unnamed_addr #0 {
  %4 = getelementptr inbounds nuw i8, ptr %0, i64 128
  %5 = tail call i64 @je_nstime_ns(ptr noundef nonnull %4) #9
  %6 = tail call i64 @je_nstime_ns(ptr noundef %1) #9
  %7 = udiv i64 %6, %5
  %8 = icmp ugt i64 %7, 199
  br i1 %8, label %16, label %9

9:                                                ; preds = %3
  %10 = sub nuw nsw i64 199, %7
  %11 = getelementptr inbounds nuw [200 x i64], ptr @h_steps, i64 0, i64 %10
  %12 = load i64, ptr %11, align 8, !tbaa !5
  %13 = sub i64 16777216, %12
  %14 = mul i64 %13, %2
  %15 = lshr i64 %14, 24
  br label %16

16:                                               ; preds = %3, %9
  %.0 = phi i64 [ %15, %9 ], [ %2, %3 ]
  ret i64 %.0
}